; Function Attrs: nounwind uwtable
define internal fastcc noalias noundef ptr @arkodeSymplecticCandyRozmus4() unnamed_addr #5 {
  %calloc.i = tail call dereferenceable_or_null(24) ptr @calloc(i64 1, i64 24)
  %.not.i = icmp eq ptr %calloc.i, null
  br i1 %.not.i, label %ARKodeSPRKTable_Alloc.exit.thread, label %1

1:                                                ; preds = %0
  %2 = tail call noalias dereferenceable_or_null(32) ptr @malloc(i64 noundef 32) #13
  %3 = getelementptr inbounds nuw i8, ptr %calloc.i, i64 16
  store ptr %2, ptr %3, align 8, !tbaa !3
  %.not14.i = icmp eq ptr %2, null
  br i1 %.not14.i, label %ARKodeSPRKTable_Free.exit.i, label %4

ARKodeSPRKTable_Free.exit.i:                      ; preds = %1
  tail call void @free(ptr noundef nonnull %calloc.i) #14
  br label %ARKodeSPRKTable_Alloc.exit.thread

4:                                                ; preds = %1
  %5 = tail call noalias dereferenceable_or_null(32) ptr @malloc(i64 noundef 32) #13
  %6 = getelementptr inbounds nuw i8, ptr %calloc.i, i64 8
  store ptr %5, ptr %6, align 8, !tbaa !10
  %.not15.i = icmp eq ptr %5, null
  br i1 %.not15.i, label %ARKodeSPRKTable_Free.exit19.i, label %7

ARKodeSPRKTable_Free.exit19.i:                    ; preds = %4
  tail call void @free(ptr noundef nonnull %2) #14
  tail call void @free(ptr noundef nonnull %calloc.i) #14
  br label %ARKodeSPRKTable_Alloc.exit.thread

7:                                                ; preds = %4
  %8 = getelementptr inbounds nuw i8, ptr %calloc.i, i64 4
  store i32 4, ptr %calloc.i, align 8, !tbaa !12
  store i32 4, ptr %8, align 4, !tbaa !11
  %9 = tail call double @SUNRpowerR(double noundef 2.000000e+00, double noundef 0x3FD5555555555555) #14
  %10 = fadd double %9, 2.000000e+00
  %11 = tail call double @SUNRpowerR(double noundef 2.000000e+00, double noundef 0xBFD5555555555555) #14
  %12 = fadd double %10, %11
  %13 = fdiv double %12, 6.000000e+00
  store double %13, ptr %5, align 8, !tbaa !13
  %14 = tail call double @SUNRpowerR(double noundef 2.000000e+00, double noundef 0x3FD5555555555555) #14
  %15 = fsub double 1.000000e+00, %14
  %16 = tail call double @SUNRpowerR(double noundef 2.000000e+00, double noundef 0xBFD5555555555555) #14
  %17 = fsub double %15, %16
  %18 = fdiv double %17, 6.000000e+00
  %19 = getelementptr inbounds nuw i8, ptr %5, i64 8
  store double %18, ptr %19, align 8, !tbaa !13
  %20 = getelementptr inbounds nuw i8, ptr %5, i64 16
  store double %18, ptr %20, align 8, !tbaa !13
  %21 = load double, ptr %5, align 8, !tbaa !13
  %22 = getelementptr inbounds nuw i8, ptr %5, i64 24
  store double %21, ptr %22, align 8, !tbaa !13
  store double 0.000000e+00, ptr %2, align 8, !tbaa !13
  %23 = tail call double @SUNRpowerR(double noundef 2.000000e+00, double noundef 0x3FD5555555555555) #14
  %24 = fsub double 2.000000e+00, %23
  %25 = fdiv double 1.000000e+00, %24
  %26 = getelementptr inbounds nuw i8, ptr %2, i64 8
  store double %25, ptr %26, align 8, !tbaa !13
  %27 = tail call double @SUNRpowerR(double noundef 2.000000e+00, double noundef 0x3FE5555555555555) #14
  %28 = fsub double 1.000000e+00, %27
  %29 = fdiv double 1.000000e+00, %28
  %30 = getelementptr inbounds nuw i8, ptr %2, i64 16
  store double %29, ptr %30, align 8, !tbaa !13
  %31 = load double, ptr %26, align 8, !tbaa !13
  %32 = getelementptr inbounds nuw i8, ptr %2, i64 24
  store double %31, ptr %32, align 8, !tbaa !13
  br label %ARKodeSPRKTable_Alloc.exit.thread

ARKodeSPRKTable_Alloc.exit.thread:                ; preds = %0, %ARKodeSPRKTable_Free.exit.i, %ARKodeSPRKTable_Free.exit19.i, %7
  %.0 = phi ptr [ %calloc.i, %7 ], [ null, %ARKodeSPRKTable_Free.exit19.i ], [ null, %ARKodeSPRKTable_Free.exit.i ], [ null, %0 ]
  ret ptr %.0
}